target datalayout = "e-m:e-p270:32:32-p271:32:32-p272:64:64-i64:64-i128:128-f80:128-n8:16:32:64-S128"
target triple = "x86_64-pc-linux-gnu"

%struct._zend_refcounted_h = type { i32, %union.anon.3 }
%union.anon.3 = type { i32 }
%struct.smart_str = type { ptr, i64 }
%struct._zend_string = type { %struct._zend_refcounted_h, i64, i64, [1 x i8] }

@.str.75 = private unnamed_addr constant [3 x i8] c":\22\00", align 1
@.str.76 = private unnamed_addr constant [3 x i8] c"\22;\00", align 1
@.str.84 = private unnamed_addr constant [3 x i8] c"s:\00", align 1

; Function Attrs: nounwind uwtable
define internal void @php_var_serialize_string(ptr noundef %0, ptr noundef %1, i64 noundef %2) #0 {
  %4 = alloca ptr, align 8
  %5 = alloca i64, align 8
  %6 = alloca i8, align 1
  %7 = alloca ptr, align 8
  %8 = alloca i64, align 8
  %9 = alloca i8, align 1
  %10 = alloca i64, align 8
  %11 = alloca ptr, align 8
  %12 = alloca ptr, align 8
  %13 = alloca ptr, align 8
  %14 = alloca i64, align 8
  %15 = alloca ptr, align 8
  %16 = alloca ptr, align 8
  %17 = alloca i64, align 8
  %18 = alloca ptr, align 8
  %19 = alloca ptr, align 8
  %20 = alloca i64, align 8
  %21 = alloca ptr, align 8
  %22 = alloca ptr, align 8
  %23 = alloca i64, align 8
  %24 = alloca ptr, align 8
  %25 = alloca i64, align 8
  %26 = alloca ptr, align 8
  %27 = alloca i64, align 8
  %28 = alloca ptr, align 8
  %29 = alloca i64, align 8
  %30 = alloca ptr, align 8
  %31 = alloca ptr, align 8
  %32 = alloca i64, align 8
  %33 = alloca ptr, align 8
  %34 = alloca ptr, align 8
  %35 = alloca ptr, align 8
  %36 = alloca i64, align 8
  %37 = alloca [32 x i8], align 16
  %38 = alloca ptr, align 8
  %39 = alloca i64, align 8
  %40 = alloca ptr, align 8
  store ptr %0, ptr %34, align 8
  store ptr %1, ptr %35, align 8
  store i64 %2, ptr %36, align 8
  %41 = getelementptr inbounds [32 x i8], ptr %37, i64 0, i64 0
  %42 = getelementptr inbounds i8, ptr %41, i64 32
  %43 = getelementptr inbounds i8, ptr %42, i64 -1
  %44 = load i64, ptr %36, align 8
  store ptr %43, ptr %31, align 8
  store i64 %44, ptr %32, align 8
  %45 = load i64, ptr %32, align 8
  %46 = icmp slt i64 %45, 0
  br i1 %46, label %47, label %71

47:                                               ; preds = %3
  %48 = load ptr, ptr %31, align 8
  %49 = load i64, ptr %32, align 8
  %50 = xor i64 %49, -1
  %51 = add i64 %50, 1
  store ptr %48, ptr %28, align 8
  store i64 %51, ptr %29, align 8
  %52 = load ptr, ptr %28, align 8
  store i8 0, ptr %52, align 1
  br label %53

53:                                               ; preds = %53, %47
  %54 = load i64, ptr %29, align 8
  %55 = urem i64 %54, 10
  %56 = trunc i64 %55 to i8
  %57 = sext i8 %56 to i32
  %58 = add nsw i32 %57, 48
  %59 = trunc i32 %58 to i8
  %60 = load ptr, ptr %28, align 8
  %61 = getelementptr inbounds i8, ptr %60, i32 -1
  store ptr %61, ptr %28, align 8
  store i8 %59, ptr %61, align 1
  %62 = load i64, ptr %29, align 8
  %63 = udiv i64 %62, 10
  store i64 %63, ptr %29, align 8
  %64 = load i64, ptr %29, align 8
  %65 = icmp ugt i64 %64, 0
  br i1 %65, label %53, label %66

66:                                               ; preds = %53
  %67 = load ptr, ptr %28, align 8
  store ptr %67, ptr %33, align 8
  %68 = load ptr, ptr %33, align 8
  %69 = getelementptr inbounds i8, ptr %68, i32 -1
  store ptr %69, ptr %33, align 8
  store i8 45, ptr %69, align 1
  %70 = load ptr, ptr %33, align 8
  store ptr %70, ptr %30, align 8
  br label %90

71:                                               ; preds = %3
  %72 = load ptr, ptr %31, align 8
  %73 = load i64, ptr %32, align 8
  store ptr %72, ptr %26, align 8
  store i64 %73, ptr %27, align 8
  %74 = load ptr, ptr %26, align 8
  store i8 0, ptr %74, align 1
  br label %75

75:                                               ; preds = %75, %71
  %76 = load i64, ptr %27, align 8
  %77 = urem i64 %76, 10
  %78 = trunc i64 %77 to i8
  %79 = sext i8 %78 to i32
  %80 = add nsw i32 %79, 48
  %81 = trunc i32 %80 to i8
  %82 = load ptr, ptr %26, align 8
  %83 = getelementptr inbounds i8, ptr %82, i32 -1
  store ptr %83, ptr %26, align 8
  store i8 %81, ptr %83, align 1
  %84 = load i64, ptr %27, align 8
  %85 = udiv i64 %84, 10
  store i64 %85, ptr %27, align 8
  %86 = load i64, ptr %27, align 8
  %87 = icmp ugt i64 %86, 0
  br i1 %87, label %75, label %88

88:                                               ; preds = %75
  %89 = load ptr, ptr %26, align 8
  store ptr %89, ptr %30, align 8
  br label %90

90:                                               ; preds = %88, %66
  %91 = load ptr, ptr %30, align 8
  store ptr %91, ptr %38, align 8
  %92 = getelementptr inbounds [32 x i8], ptr %37, i64 0, i64 0
  %93 = getelementptr inbounds i8, ptr %92, i64 32
  %94 = getelementptr inbounds i8, ptr %93, i64 -1
  %95 = load ptr, ptr %38, align 8
  %96 = ptrtoint ptr %94 to i64
  %97 = ptrtoint ptr %95 to i64
  %98 = sub i64 %96, %97
  store i64 %98, ptr %39, align 8
  %99 = load ptr, ptr %34, align 8
  %100 = load i64, ptr %39, align 8
  %101 = add i64 2, %100
  %102 = add i64 %101, 2
  %103 = load i64, ptr %36, align 8
  %104 = add i64 %102, %103
  %105 = add i64 %104, 2
  store ptr %99, ptr %24, align 8
  store i64 %105, ptr %25, align 8
  %106 = load ptr, ptr %24, align 8
  %107 = load i64, ptr %25, align 8
  store ptr %106, ptr %7, align 8
  store i64 %107, ptr %8, align 8
  store i8 0, ptr %9, align 1
  %108 = load ptr, ptr %7, align 8
  %109 = load i64, ptr %8, align 8
  %110 = load i8, ptr %9, align 1
  %111 = trunc i8 %110 to i1
  store ptr %108, ptr %4, align 8
  store i64 %109, ptr %5, align 8
  %112 = zext i1 %111 to i8
  store i8 %112, ptr %6, align 1
  %113 = load ptr, ptr %4, align 8
  %114 = load ptr, ptr %113, align 8
  %115 = icmp ne ptr %114, null
  %116 = xor i1 %115, true
  br i1 %116, label %117, label %118

117:                                              ; preds = %90
  br label %131

118:                                              ; preds = %90
  %119 = load ptr, ptr %4, align 8
  %120 = load ptr, ptr %119, align 8
  %121 = getelementptr inbounds %struct._zend_string, ptr %120, i32 0, i32 2
  %122 = load i64, ptr %121, align 8
  %123 = load i64, ptr %5, align 8
  %124 = add i64 %123, %122
  store i64 %124, ptr %5, align 8
  %125 = load i64, ptr %5, align 8
  %126 = load ptr, ptr %4, align 8
  %127 = getelementptr inbounds %struct.smart_str, ptr %126, i32 0, i32 1
  %128 = load i64, ptr %127, align 8
  %129 = icmp uge i64 %125, %128
  br i1 %129, label %130, label %141

130:                                              ; preds = %118
  br label %131

131:                                              ; preds = %130, %117
  %132 = load i8, ptr %6, align 1
  %133 = trunc i8 %132 to i1
  br i1 %133, label %134, label %137

134:                                              ; preds = %131
  %135 = load ptr, ptr %4, align 8
  %136 = load i64, ptr %5, align 8
  call void @smart_str_realloc(ptr noundef %135, i64 noundef %136) #11
  br label %140

137:                                              ; preds = %131
  %138 = load ptr, ptr %4, align 8
  %139 = load i64, ptr %5, align 8
  call void @smart_str_erealloc(ptr noundef %138, i64 noundef %139) #11
  br label %140

140:                                              ; preds = %137, %134
  br label %141

141:                                              ; preds = %140, %118
  %142 = load i64, ptr %5, align 8
  store i64 %142, ptr %10, align 8
  %143 = load ptr, ptr %7, align 8
  %144 = load ptr, ptr %143, align 8
  %145 = getelementptr inbounds %struct._zend_string, ptr %144, i32 0, i32 3
  %146 = load ptr, ptr %7, align 8
  %147 = load ptr, ptr %146, align 8
  %148 = getelementptr inbounds %struct._zend_string, ptr %147, i32 0, i32 2
  %149 = load i64, ptr %148, align 8
  %150 = getelementptr inbounds i8, ptr %145, i64 %149
  store ptr %150, ptr %11, align 8
  %151 = load i64, ptr %10, align 8
  %152 = load ptr, ptr %7, align 8
  %153 = load ptr, ptr %152, align 8
  %154 = getelementptr inbounds %struct._zend_string, ptr %153, i32 0, i32 2
  store i64 %151, ptr %154, align 8
  %155 = load ptr, ptr %11, align 8
  store ptr %155, ptr %40, align 8
  %156 = load ptr, ptr %40, align 8
  store ptr %156, ptr %12, align 8
  store ptr @.str.84, ptr %13, align 8
  store i64 2, ptr %14, align 8
  %157 = load ptr, ptr %12, align 8
  %158 = load ptr, ptr %13, align 8
  %159 = load i64, ptr %14, align 8
  %160 = call ptr @mempcpy(ptr noundef %157, ptr noundef %158, i64 noundef %159) #11
  store ptr %160, ptr %40, align 8
  %161 = load ptr, ptr %40, align 8
  %162 = load ptr, ptr %38, align 8
  %163 = load i64, ptr %39, align 8
  store ptr %161, ptr %15, align 8
  store ptr %162, ptr %16, align 8
  store i64 %163, ptr %17, align 8
  %164 = load ptr, ptr %15, align 8
  %165 = load ptr, ptr %16, align 8
  %166 = load i64, ptr %17, align 8
  %167 = call ptr @mempcpy(ptr noundef %164, ptr noundef %165, i64 noundef %166) #11
  store ptr %167, ptr %40, align 8
  %168 = load ptr, ptr %40, align 8
  store ptr %168, ptr %18, align 8
  store ptr @.str.75, ptr %19, align 8
  store i64 2, ptr %20, align 8
  %169 = load ptr, ptr %18, align 8
  %170 = load ptr, ptr %19, align 8
  %171 = load i64, ptr %20, align 8
  %172 = call ptr @mempcpy(ptr noundef %169, ptr noundef %170, i64 noundef %171) #11
  store ptr %172, ptr %40, align 8
  %173 = load ptr, ptr %40, align 8
  %174 = load ptr, ptr %35, align 8
  %175 = load i64, ptr %36, align 8
  store ptr %173, ptr %21, align 8
  store ptr %174, ptr %22, align 8
  store i64 %175, ptr %23, align 8
  %176 = load ptr, ptr %21, align 8
  %177 = load ptr, ptr %22, align 8
  %178 = load i64, ptr %23, align 8
  %179 = call ptr @mempcpy(ptr noundef %176, ptr noundef %177, i64 noundef %178) #11
  store ptr %179, ptr %40, align 8
  %180 = load ptr, ptr %40, align 8
  call void @llvm.memcpy.p0.p0.i64(ptr align 1 %180, ptr align 1 @.str.76, i64 2, i1 false)
  ret void
}