; Function Attrs: nounwind uwtable
define internal fastcc void @php_var_serialize_string(ptr noundef %0, ptr nocapture noundef readonly %1, i64 noundef %2) unnamed_addr #0 {
  %4 = alloca [32 x i8], align 16
  %5 = getelementptr inbounds i8, ptr %4, i64 31
  %6 = icmp slt i64 %2, 0
  br i1 %6, label %7, label %17

7:                                                ; preds = %3
  %8 = sub i64 0, %2
  store i8 0, ptr %5, align 1
  br label %9

9:                                                ; preds = %9, %7
  %.069 = phi i64 [ %8, %7 ], [ %14, %9 ]
  %.068 = phi ptr [ %5, %7 ], [ %13, %9 ]
  %10 = urem i64 %.069, 10
  %11 = trunc i64 %10 to i8
  %12 = or disjoint i8 %11, 48
  %13 = getelementptr inbounds i8, ptr %.068, i64 -1
  store i8 %12, ptr %13, align 1
  %14 = udiv i64 %.069, 10
  %.not75 = icmp ult i64 %.069, 10
  br i1 %.not75, label %15, label %9

15:                                               ; preds = %9
  %16 = getelementptr inbounds i8, ptr %.068, i64 -2
  store i8 45, ptr %16, align 1
  br label %.loopexit

17:                                               ; preds = %3
  store i8 0, ptr %5, align 1
  br label %18

18:                                               ; preds = %18, %17
  %.067 = phi i64 [ %2, %17 ], [ %23, %18 ]
  %.066 = phi ptr [ %5, %17 ], [ %22, %18 ]
  %19 = urem i64 %.067, 10
  %20 = trunc i64 %19 to i8
  %21 = or disjoint i8 %20, 48
  %22 = getelementptr inbounds i8, ptr %.066, i64 -1
  store i8 %21, ptr %22, align 1
  %23 = udiv i64 %.067, 10
  %.not = icmp ult i64 %.067, 10
  br i1 %.not, label %.loopexit, label %18

.loopexit:                                        ; preds = %18, %15
  %.070 = phi ptr [ %16, %15 ], [ %22, %18 ]
  %24 = ptrtoint ptr %5 to i64
  %25 = ptrtoint ptr %.070 to i64
  %26 = sub i64 %24, %25
  %27 = add i64 %2, 6
  %28 = add i64 %27, %26
  %29 = load ptr, ptr %0, align 8
  %.not76 = icmp eq ptr %29, null
  br i1 %.not76, label %36, label %30

30:                                               ; preds = %.loopexit
  %31 = getelementptr inbounds i8, ptr %29, i64 16
  %32 = load i64, ptr %31, align 8
  %33 = add i64 %32, %28
  %34 = getelementptr inbounds i8, ptr %0, i64 8
  %35 = load i64, ptr %34, align 8
  %.not77 = icmp ult i64 %33, %35
  br i1 %.not77, label %37, label %36

36:                                               ; preds = %.loopexit, %30
  %.0 = phi i64 [ %28, %.loopexit ], [ %33, %30 ]
  call void @smart_str_erealloc(ptr noundef nonnull %0, i64 noundef %.0) #12
  %.pre = load ptr, ptr %0, align 8
  %.phi.trans.insert = getelementptr inbounds i8, ptr %.pre, i64 16
  %.pre78 = load i64, ptr %.phi.trans.insert, align 8
  br label %37

37:                                               ; preds = %36, %30
  %38 = phi i64 [ %.pre78, %36 ], [ %32, %30 ]
  %39 = phi ptr [ %.pre, %36 ], [ %29, %30 ]
  %.1 = phi i64 [ %.0, %36 ], [ %33, %30 ]
  %40 = getelementptr inbounds i8, ptr %39, i64 24
  %41 = getelementptr inbounds i8, ptr %39, i64 16
  %42 = getelementptr inbounds i8, ptr %40, i64 %38
  store i64 %.1, ptr %41, align 8
  store i16 14963, ptr %42, align 1
  %43 = getelementptr inbounds i8, ptr %42, i64 2
  call void @llvm.memcpy.p0.p0.i64(ptr noundef nonnull align 1 %43, ptr noundef nonnull align 1 %.070, i64 noundef %26, i1 false) #12
  %44 = getelementptr inbounds i8, ptr %43, i64 %26
  store i16 8762, ptr %44, align 1
  %45 = getelementptr inbounds i8, ptr %44, i64 2
  call void @llvm.memcpy.p0.p0.i64(ptr noundef nonnull align 1 %45, ptr noundef align 1 %1, i64 noundef %2, i1 false) #12
  %46 = getelementptr inbounds i8, ptr %45, i64 %2
  store i16 15138, ptr %46, align 1
  ret void
}